; ModuleID = '27/194.c'
source_filename = "27/194.c"
target datalayout = "e-m:e-p270:32:32-p271:32:32-p272:64:64-i64:64-f80:128-n8:16:32:64-S128"
target triple = "x86_64-pc-linux-gnu"

@.str = private unnamed_addr constant [3 x i8] c"%d\00", align 1
@.str.1 = private unnamed_addr constant [10 x i8] c"%lf%lf%lf\00", align 1
@.str.2 = private unnamed_addr constant [19 x i8] c"x1=%.5lf;x2=%.5lf\0A\00", align 1
@.str.3 = private unnamed_addr constant [13 x i8] c"x1=x2=%.5lf\0A\00", align 1
@.str.4 = private unnamed_addr constant [33 x i8] c"x1=%.5lf+%.5lfi;x2=%.5lf-%.5lfi\0A\00", align 1

; Function Attrs: noinline nounwind uwtable
define dso_local i32 @main() #0 {
  %1 = alloca i32, align 4
  %2 = alloca i32, align 4
  %3 = alloca i32, align 4
  %4 = alloca double, align 8
  %5 = alloca double, align 8
  %6 = alloca double, align 8
  %7 = alloca double, align 8
  %8 = alloca double, align 8
  %9 = alloca double, align 8
  %10 = alloca double, align 8
  %11 = alloca double, align 8
  store i32 0, i32* %1, align 4
  %12 = call i32 (i8*, ...) @__isoc99_scanf(i8* getelementptr inbounds ([3 x i8], [3 x i8]* @.str, i64 0, i64 0), i32* %2)
  store i32 0, i32* %3, align 4
  br label %13

13:                                               ; preds = %95, %0
  %14 = load i32, i32* %3, align 4
  %15 = load i32, i32* %2, align 4
  %16 = icmp slt i32 %14, %15
  br i1 %16, label %17, label %98

17:                                               ; preds = %13
  %18 = call i32 (i8*, ...) @__isoc99_scanf(i8* getelementptr inbounds ([10 x i8], [10 x i8]* @.str.1, i64 0, i64 0), double* %4, double* %5, double* %6)
  %19 = load double, double* %5, align 8
  %20 = load double, double* %5, align 8
  %21 = fmul double %19, %20
  %22 = load double, double* %4, align 8
  %23 = fmul double 4.000000e+00, %22
  %24 = load double, double* %6, align 8
  %25 = fmul double %23, %24
  %26 = fsub double %21, %25
  store double %26, double* %7, align 8
  %27 = load double, double* %7, align 8
  %28 = fcmp ogt double %27, 0.000000e+00
  br i1 %28, label %29, label %57

29:                                               ; preds = %17
  %30 = load double, double* %5, align 8
  %31 = fneg double %30
  %32 = load double, double* %7, align 8
  %33 = call double @sqrt(double %32) #3
  %34 = fadd double %31, %33
  %35 = load double, double* %4, align 8
  %36 = fmul double 2.000000e+00, %35
  %37 = fdiv double %34, %36
  store double %37, double* %8, align 8
  %38 = load double, double* %5, align 8
  %39 = fneg double %38
  %40 = load double, double* %7, align 8
  %41 = call double @sqrt(double %40) #3
  %42 = fsub double %39, %41
  %43 = load double, double* %4, align 8
  %44 = fmul double 2.000000e+00, %43
  %45 = fdiv double %42, %44
  store double %45, double* %9, align 8
  %46 = load double, double* %8, align 8
  %47 = fcmp oeq double %46, 0.000000e+00
  br i1 %47, label %48, label %49

48:                                               ; preds = %29
  store double 0.000000e+00, double* %8, align 8
  br label %49

49:                                               ; preds = %48, %29
  %50 = load double, double* %9, align 8
  %51 = fcmp oeq double %50, 0.000000e+00
  br i1 %51, label %52, label %53

52:                                               ; preds = %49
  store double 0.000000e+00, double* %9, align 8
  br label %53

53:                                               ; preds = %52, %49
  %54 = load double, double* %8, align 8
  %55 = load double, double* %9, align 8
  %56 = call i32 (i8*, ...) @printf(i8* getelementptr inbounds ([19 x i8], [19 x i8]* @.str.2, i64 0, i64 0), double %54, double %55)
  br label %94

57:                                               ; preds = %17
  %58 = load double, double* %7, align 8
  %59 = fcmp oeq double %58, 0.000000e+00
  br i1 %59, label %60, label %72

60:                                               ; preds = %57
  %61 = load double, double* %5, align 8
  %62 = fneg double %61
  %63 = load double, double* %4, align 8
  %64 = fmul double 2.000000e+00, %63
  %65 = fdiv double %62, %64
  store double %65, double* %8, align 8
  %66 = load double, double* %8, align 8
  %67 = fcmp oeq double %66, 0.000000e+00
  br i1 %67, label %68, label %69

68:                                               ; preds = %60
  store double 0.000000e+00, double* %8, align 8
  br label %69

69:                                               ; preds = %68, %60
  %70 = load double, double* %8, align 8
  %71 = call i32 (i8*, ...) @printf(i8* getelementptr inbounds ([13 x i8], [13 x i8]* @.str.3, i64 0, i64 0), double %70)
  br label %93

72:                                               ; preds = %57
  %73 = load double, double* %5, align 8
  %74 = fneg double %73
  %75 = load double, double* %4, align 8
  %76 = fmul double 2.000000e+00, %75
  %77 = fdiv double %74, %76
  store double %77, double* %10, align 8
  %78 = load double, double* %10, align 8
  %79 = fcmp oeq double %78, 0.000000e+00
  br i1 %79, label %80, label %81

80:                                               ; preds = %72
  store double 0.000000e+00, double* %10, align 8
  br label %81

81:                                               ; preds = %80, %72
  %82 = load double, double* %7, align 8
  %83 = fneg double %82
  %84 = call double @sqrt(double %83) #3
  %85 = load double, double* %4, align 8
  %86 = fmul double 2.000000e+00, %85
  %87 = fdiv double %84, %86
  store double %87, double* %11, align 8
  %88 = load double, double* %10, align 8
  %89 = load double, double* %11, align 8
  %90 = load double, double* %10, align 8
  %91 = load double, double* %11, align 8
  %92 = call i32 (i8*, ...) @printf(i8* getelementptr inbounds ([33 x i8], [33 x i8]* @.str.4, i64 0, i64 0), double %88, double %89, double %90, double %91)
  br label %93

93:                                               ; preds = %81, %69
  br label %94

94:                                               ; preds = %93, %53
  br label %95

95:                                               ; preds = %94
  %96 = load i32, i32* %3, align 4
  %97 = add nsw i32 %96, 1
  store i32 %97, i32* %3, align 4
  br label %13

98:                                               ; preds = %13
  %99 = load i32, i32* %1, align 4
  ret i32 %99
}

declare dso_local i32 @__isoc99_scanf(i8*, ...) #1

; Function Attrs: nounwind
declare dso_local double @sqrt(double) #2

declare dso_local i32 @printf(i8*, ...) #1


!llvm.module.flags = !{!0}
!llvm.ident = !{!1}

!0 = !{i32 1, !"wchar_size", i32 4}
!1 = !{!"clang version 10.0.0-4ubuntu1 "}
